; Function Attrs: mustprogress nofree nounwind willreturn memory(readwrite, argmem: none) uwtable
define hidden noundef ptr @hb_map_create() local_unnamed_addr #0 {
  %1 = tail call noalias dereferenceable_or_null(48) ptr @calloc(i64 noundef 1, i64 noundef 48) #22
  %.not.i = icmp eq ptr %1, null
  br i1 %.not.i, label %8, label %_ZL16hb_object_createI8hb_map_tJEEPT_DpT0_.exit

_ZL16hb_object_createI8hb_map_tJEEPT_DpT0_.exit:  ; preds = %0
  store atomic i32 1, ptr %1 monotonic, align 4
  %2 = getelementptr inbounds i8, ptr %1, i64 4
  store atomic i32 1, ptr %2 monotonic, align 4
  %3 = getelementptr inbounds i8, ptr %1, i64 8
  store atomic i64 0, ptr %3 monotonic, align 8
  %4 = getelementptr inbounds i8, ptr %1, i64 16
  store <4 x i32> <i32 1, i32 0, i32 0, i32 0>, ptr %4, align 8
  %5 = getelementptr inbounds i8, ptr %1, i64 32
  store i32 0, ptr %5, align 8
  %6 = getelementptr inbounds i8, ptr %1, i64 40
  store ptr null, ptr %6, align 8
  store atomic i32 1, ptr %1 monotonic, align 4
  store atomic i32 1, ptr %2 monotonic, align 4
  store atomic i64 0, ptr %3 monotonic, align 8
  %7 = load atomic i32, ptr %1 monotonic, align 4
  br label %8

8:                                                ; preds = %0, %_ZL16hb_object_createI8hb_map_tJEEPT_DpT0_.exit
  %.0 = phi ptr [ %1, %_ZL16hb_object_createI8hb_map_tJEEPT_DpT0_.exit ], [ @_hb_NullPool, %0 ]
  ret ptr %.0
}